(lp0
(I0
F13.809088957611376
tp1
a(I1
F13.774480030509443
tp2
a(I2
F13.739696951288868
tp3
a(I3
F13.704737055808032
tp4
a(I4
F13.66959761121078
tp5
a(I5
F13.634275813417664
tp6
a(I6
F13.598768784498134
tp7
a(I7
F13.563073569916686
tp8
a(I8
F13.527187135645535
tp9
a(I9
F13.491106365135762
tp10
a(I10
F13.454828056138403
tp11
a(I11
F13.418348917366274
tp12
a(I12
F13.381665564986678
tp13
a(I13
F13.34477451893438
tp14
a(I14
F13.307672199033465
tp15
a(I15
F13.270354920915878
tp16
a(I16
F13.232818891723355
tp17
a(I17
F13.195060205578637
tp18
a(I18
F13.157074838810571
tp19
a(I19
F13.11885864491656
tp20
a(I20
F13.080407349244524
tp21
a(I21
F13.041716543374957
tp22
a(I22
F13.002781679182236
tp23
a(I23
F12.963598062552435
tp24
a(I24
F12.92416084673306
tp25
a(I25
F12.884465025288021
tp26
a(I26
F12.844505424628768
tp27
a(I27
F12.804276696090012
tp28
a(I28
F12.763773307515631
tp29
a(I29
F12.72298953431721
tp30
a(I30
F12.681919449964242
tp31
a(I31
F12.640556915861207
tp32
a(I32
F12.598895570562485
tp33
a(I33
F12.556928818271365
tp34
a(I34
F12.51464981656421
tp35
a(I35
F12.472051463274964
tp36
a(I36
F12.429126382468702
tp37
a(I37
F12.385866909425703
tp38
a(I38
F12.34226507454928
tp39
a(I39
F12.29831258610161
tp40
a(I40
F12.254000811661438
tp41
a(I41
F12.20932075818609
tp42
a(I42
F12.164263050547131
tp43
a(I43
F12.118817908394373
tp44
a(I44
F12.07297512118626
tp45
a(I45
F12.02672402120579
tp46
a(I46
F11.98005345435965
tp47
a(I47
F11.932951748533796
tp48
a(I48
F11.885406679250751
tp49
a(I49
F11.837405432341924
tp50
a(I50
F11.788934563311496
tp51
a(I51
F11.7399799530262
tp52
a(I52
F11.690526759316546
tp53
a(I53
F11.640559364018621
tp54
a(I54
F11.590061314920145
tp55
a(I55
F11.539015261998209
tp56
a(I56
F11.487402887247214
tp57
a(I57
F11.435204827291232
tp58
a(I58
F11.382400587852496
tp59
a(I59
F11.328968449003218
tp60
a(I60
F11.274885359956707
tp61
a(I61
F11.220126821950345
tp62
a(I62
F11.164666757530112
tp63
a(I63
F11.108477364255208
tp64
a(I64
F11.051528950490725
tp65
a(I65
F10.993789750532239
tp66
a(I66
F10.935225715790317
tp67
a(I67
F10.875800278132644
tp68
a(I68
F10.81547408070642
tp69
a(I69
F10.754204670605708
tp70
a(I70
F10.691946146556388
tp71
a(I71
F10.62864875329872
tp72
a(I72
F10.56425841246501
tp73
a(I73
F10.49871617735817
tp74
a(I74
F10.43195759597385
tp75
a(I75
F10.36391196265253
tp76
a(I76
F10.294501433591124
tp77
a(I77
F10.223639974656141
tp78
a(I78
F10.151232100911452
tp79
a(I79
F10.077171355126161
tp80
a(I80
F10.001338455981033
tp81
a(I81
F9.923599023847844
tp82
a(I82
F9.84380076001258
tp83
a(I83
F9.761769909651091
tp84
a(I84
F9.6773067728418
tp85
a(I85
F9.590179930329754
tp86
a(I86
F9.500118703384247
tp87
a(I87
F9.406803138983467
tp88
a(I88
F9.30985044859197
tp89
a(I89
F9.208796232785685
tp90
a(I90
F9.10306780926535
tp91
a(I91
F8.991945160073394
tp92
a(I92
F8.874501652217784
tp93
a(I93
F8.74951003043421
tp94
a(I94
F8.615285012296741
tp95
a(I95
F8.469400776060992
tp96
a(I96
F8.308134888640463
tp97
a(I97
F8.12522233034728
tp98
a(I98
F7.908449791685352
tp99
a(I99
F7.626293272220945
tp100
a.